; Function Attrs: null_pointer_is_valid sspstrong uwtable
define hidden i32 @mapi_dissect_struct_ContentsTableChange(ptr noundef %0, i32 noundef %1, ptr noundef %2, ptr noundef %3, ptr noundef %4, ptr noundef %5, i32 noundef %6, i32 %7) local_unnamed_addr #0 {
  %9 = alloca ptr, align 8
  %10 = alloca i16, align 2
  %11 = getelementptr inbounds nuw i8, ptr %4, i64 26
  %12 = load i8, ptr %11, align 2, !range !9, !noundef !10
  store i8 1, ptr %11, align 2
  %.not = icmp eq ptr %3, null
  br i1 %.not, label %17, label %13

13:                                               ; preds = %8
  %14 = tail call ptr @proto_tree_add_item(ptr noundef nonnull %3, i32 noundef %6, ptr noundef %0, i32 noundef %1, i32 noundef -1, i32 noundef 0)
  %15 = load i32, ptr @ett_mapi_ContentsTableChange, align 4
  %16 = tail call ptr @proto_item_add_subtree(ptr noundef %14, i32 noundef %15)
  br label %17

17:                                               ; preds = %13, %8
  %.026 = phi ptr [ %16, %13 ], [ null, %8 ]
  %.0 = phi ptr [ %14, %13 ], [ null, %8 ]
  %18 = load i32, ptr @hf_mapi_ContentsTableChange_TableEvent, align 4
  call void @llvm.lifetime.start.p0(i64 2, ptr nonnull %10) #6
  store i16 0, ptr %10, align 2
  %19 = call i32 @dissect_ndr_uint16(ptr noundef %0, i32 noundef %1, ptr noundef %2, ptr noundef %.026, ptr noundef %4, ptr noundef %5, i32 noundef %18, ptr noundef nonnull %10)
  %20 = load i16, ptr %10, align 2
  call void @llvm.lifetime.end.p0(i64 2, ptr nonnull %10) #6
  call void @llvm.lifetime.start.p0(i64 8, ptr nonnull %9) #6
  store ptr null, ptr %9, align 8
  %.not.i.i = icmp eq ptr %.026, null
  br i1 %.not.i.i, label %24, label %21

21:                                               ; preds = %17
  %22 = load i32, ptr @ett_mapi_ContentsTableChangeUnion, align 4
  %23 = call ptr @proto_tree_add_subtree(ptr noundef nonnull %.026, ptr noundef %0, i32 noundef %19, i32 noundef -1, i32 noundef %22, ptr noundef nonnull %9, ptr noundef nonnull @.str.4224)
  br label %24

24:                                               ; preds = %21, %17
  %.027.i.i = phi ptr [ %23, %21 ], [ null, %17 ]
  switch i16 %20, label %mapi_dissect_element_ContentsTableChange_ContentsTableChangeUnion.exit [
    i16 3, label %25
    i16 4, label %28
    i16 5, label %31
  ]

25:                                               ; preds = %24
  %26 = load i32, ptr @hf_mapi_ContentsTableChangeUnion_ContentsRowAddedNotification, align 4
  %27 = call i32 @mapi_dissect_struct_ContentsRowAddedNotification(ptr noundef %0, i32 noundef %19, ptr noundef %2, ptr noundef %.027.i.i, ptr noundef %4, ptr noundef %5, i32 noundef %26, i32 poison)
  br label %mapi_dissect_element_ContentsTableChange_ContentsTableChangeUnion.exit

28:                                               ; preds = %24
  %29 = load i32, ptr @hf_mapi_ContentsTableChangeUnion_ContentsRowDeletedNotification, align 4
  %30 = call i32 @mapi_dissect_struct_ContentsRowDeletedNotification(ptr noundef %0, i32 noundef %19, ptr noundef %2, ptr noundef %.027.i.i, ptr noundef %4, ptr noundef %5, i32 noundef %29, i32 poison)
  br label %mapi_dissect_element_ContentsTableChange_ContentsTableChangeUnion.exit

31:                                               ; preds = %24
  %32 = load i32, ptr @hf_mapi_ContentsTableChangeUnion_ContentsRowModifiedNotification, align 4
  %33 = call i32 @mapi_dissect_struct_ContentsRowModifiedNotification(ptr noundef %0, i32 noundef %19, ptr noundef %2, ptr noundef %.027.i.i, ptr noundef %4, ptr noundef %5, i32 noundef %32, i32 poison)
  br label %mapi_dissect_element_ContentsTableChange_ContentsTableChangeUnion.exit

mapi_dissect_element_ContentsTableChange_ContentsTableChangeUnion.exit: ; preds = %24, %25, %28, %31
  %.0.i.i = phi i32 [ %19, %24 ], [ %33, %31 ], [ %30, %28 ], [ %27, %25 ]
  %34 = load ptr, ptr %9, align 8
  %35 = sub i32 %.0.i.i, %19
  call void @proto_item_set_len(ptr noundef %34, i32 noundef %35)
  call void @llvm.lifetime.end.p0(i64 8, ptr nonnull %9) #6
  %36 = sub i32 %.0.i.i, %1
  call void @proto_item_set_len(ptr noundef %.0, i32 noundef %36)
  store i8 %12, ptr %11, align 2
  ret i32 %.0.i.i
}